target datalayout = "e-m:e-p270:32:32-p271:32:32-p272:64:64-i64:64-i128:128-f80:128-n8:16:32:64-S128"
target triple = "x86_64-pc-linux-gnu"

%struct.thread_pool = type { ptr, i32, %struct._GCond, %union._GMutex }
%struct._GCond = type { ptr, [2 x i32] }
%union._GMutex = type { ptr }
%struct.extcap_run_task = type { ptr, ptr, ptr, ptr }

; Function Attrs: null_pointer_is_valid sspstrong uwtable
define internal void @extcap_thread_callback(ptr noundef %0, ptr noundef %1) #0 {
  %3 = alloca ptr, align 8
  %4 = alloca ptr, align 8
  %5 = alloca ptr, align 8
  %6 = alloca ptr, align 8
  %7 = alloca ptr, align 8
  %8 = alloca ptr, align 8
  store ptr %0, ptr %3, align 8
  store ptr %1, ptr %4, align 8
  call void @llvm.lifetime.start.p0(i64 8, ptr %5) #9
  %9 = load ptr, ptr %3, align 8
  store ptr %9, ptr %5, align 8
  call void @llvm.lifetime.start.p0(i64 8, ptr %6) #9
  %10 = load ptr, ptr %4, align 8
  store ptr %10, ptr %6, align 8
  call void @llvm.lifetime.start.p0(i64 8, ptr %7) #9
  %11 = call ptr @get_extcap_dir()
  store ptr %11, ptr %7, align 8
  call void @llvm.lifetime.start.p0(i64 8, ptr %8) #9
  %12 = load ptr, ptr %7, align 8
  %13 = load ptr, ptr %5, align 8
  %14 = getelementptr inbounds nuw %struct.extcap_run_task, ptr %13, i32 0, i32 0
  %15 = load ptr, ptr %14, align 8
  %16 = load ptr, ptr %5, align 8
  %17 = getelementptr inbounds nuw %struct.extcap_run_task, ptr %16, i32 0, i32 1
  %18 = load ptr, ptr %17, align 8
  %19 = call i32 @g_strv_length(ptr noundef %18)
  %20 = load ptr, ptr %5, align 8
  %21 = getelementptr inbounds nuw %struct.extcap_run_task, ptr %20, i32 0, i32 1
  %22 = load ptr, ptr %21, align 8
  %23 = call zeroext i1 @ws_pipe_spawn_sync(ptr noundef %12, ptr noundef %15, i32 noundef %19, ptr noundef %22, ptr noundef %8)
  br i1 %23, label %24, label %33

24:                                               ; preds = %2
  %25 = load ptr, ptr %5, align 8
  %26 = getelementptr inbounds nuw %struct.extcap_run_task, ptr %25, i32 0, i32 2
  %27 = load ptr, ptr %26, align 8
  %28 = load ptr, ptr %6, align 8
  %29 = load ptr, ptr %5, align 8
  %30 = getelementptr inbounds nuw %struct.extcap_run_task, ptr %29, i32 0, i32 3
  %31 = load ptr, ptr %30, align 8
  %32 = load ptr, ptr %8, align 8
  call void %27(ptr noundef %28, ptr noundef %31, ptr noundef %32)
  br label %41

33:                                               ; preds = %2
  %34 = load ptr, ptr %5, align 8
  %35 = getelementptr inbounds nuw %struct.extcap_run_task, ptr %34, i32 0, i32 2
  %36 = load ptr, ptr %35, align 8
  %37 = load ptr, ptr %6, align 8
  %38 = load ptr, ptr %5, align 8
  %39 = getelementptr inbounds nuw %struct.extcap_run_task, ptr %38, i32 0, i32 3
  %40 = load ptr, ptr %39, align 8
  call void %36(ptr noundef %37, ptr noundef %40, ptr noundef null)
  br label %41

41:                                               ; preds = %33, %24
  %42 = load ptr, ptr %5, align 8
  %43 = getelementptr inbounds nuw %struct.extcap_run_task, ptr %42, i32 0, i32 1
  %44 = load ptr, ptr %43, align 8
  call void @g_strfreev(ptr noundef %44)
  %45 = load ptr, ptr %5, align 8
  call void @g_free(ptr noundef %45)
  %46 = load ptr, ptr %6, align 8
  %47 = getelementptr inbounds nuw %struct.thread_pool, ptr %46, i32 0, i32 3
  call void @g_mutex_lock(ptr noundef %47)
  %48 = load ptr, ptr %6, align 8
  %49 = getelementptr inbounds nuw %struct.thread_pool, ptr %48, i32 0, i32 1
  %50 = load i32, ptr %49, align 8
  %51 = add i32 %50, -1
  store i32 %51, ptr %49, align 8
  %52 = icmp eq i32 %51, 0
  br i1 %52, label %53, label %56

53:                                               ; preds = %41
  %54 = load ptr, ptr %6, align 8
  %55 = getelementptr inbounds nuw %struct.thread_pool, ptr %54, i32 0, i32 2
  call void @g_cond_signal(ptr noundef %55)
  br label %56

56:                                               ; preds = %53, %41
  %57 = load ptr, ptr %6, align 8
  %58 = getelementptr inbounds nuw %struct.thread_pool, ptr %57, i32 0, i32 3
  call void @g_mutex_unlock(ptr noundef %58)
  call void @llvm.lifetime.end.p0(i64 8, ptr %8) #9
  call void @llvm.lifetime.end.p0(i64 8, ptr %7) #9
  call void @llvm.lifetime.end.p0(i64 8, ptr %6) #9
  call void @llvm.lifetime.end.p0(i64 8, ptr %5) #9
  ret void
}