; Function Attrs: null_pointer_is_valid sspstrong uwtable
define internal void @extcap_thread_callback(ptr noundef %0, ptr noundef %1) #0 {
  %3 = alloca ptr, align 8
  %4 = tail call ptr @get_extcap_dir()
  call void @llvm.lifetime.start.p0(i64 8, ptr nonnull %3) #9
  %5 = load ptr, ptr %0, align 8
  %6 = getelementptr inbounds nuw i8, ptr %0, i64 8
  %7 = load ptr, ptr %6, align 8
  %8 = tail call i32 @g_strv_length(ptr noundef %7)
  %9 = load ptr, ptr %6, align 8
  %10 = call zeroext i1 @ws_pipe_spawn_sync(ptr noundef %4, ptr noundef %5, i32 noundef %8, ptr noundef %9, ptr noundef nonnull %3)
  %11 = getelementptr inbounds nuw i8, ptr %0, i64 16
  %12 = load ptr, ptr %11, align 8
  %13 = getelementptr inbounds nuw i8, ptr %0, i64 24
  %14 = load ptr, ptr %13, align 8
  %15 = load ptr, ptr %3, align 8
  %.sink = select i1 %10, ptr %15, ptr null
  call void %12(ptr noundef %1, ptr noundef %14, ptr noundef %.sink)
  %16 = load ptr, ptr %6, align 8
  call void @g_strfreev(ptr noundef %16)
  call void @g_free(ptr noundef %0)
  %17 = getelementptr inbounds nuw i8, ptr %1, i64 32
  call void @g_mutex_lock(ptr noundef nonnull %17)
  %18 = getelementptr inbounds nuw i8, ptr %1, i64 8
  %19 = load i32, ptr %18, align 8
  %20 = add i32 %19, -1
  store i32 %20, ptr %18, align 8
  %21 = icmp eq i32 %20, 0
  br i1 %21, label %22, label %24

22:                                               ; preds = %2
  %23 = getelementptr inbounds nuw i8, ptr %1, i64 16
  call void @g_cond_signal(ptr noundef nonnull %23)
  br label %24

24:                                               ; preds = %22, %2
  call void @g_mutex_unlock(ptr noundef nonnull %17)
  call void @llvm.lifetime.end.p0(i64 8, ptr nonnull %3) #9
  ret void
}